target datalayout = "e-m:e-p270:32:32-p271:32:32-p272:64:64-i64:64-i128:128-f80:128-n8:16:32:64-S128"
target triple = "x86_64-pc-linux-gnu"

%struct.gmx_ana_index_t = type { i32, ptr, i32 }

@.str.3 = private unnamed_addr constant [129 x i8] c"generated/home/dtcxzyw/WorkSpace/Projects/compilers/llvm-opt-benchmark/bench/gromacs/gromacs/src/gromacs/selection/indexutil.cpp\00", align 1
@.str.11 = private unnamed_addr constant [9 x i8] c"g->index\00", align 1

; Function Attrs: inlinehint mustprogress uwtable
define internal void @_ZL13gmx_snew_implIiEvPKcS1_iRPT_m(ptr noundef %0, ptr noundef %1, i32 noundef %2, ptr noundef nonnull align 8 dereferenceable(8) %3, i64 noundef %4) #5 {
  %6 = alloca ptr, align 8
  %7 = alloca ptr, align 8
  %8 = alloca i32, align 4
  %9 = alloca ptr, align 8
  %10 = alloca i64, align 8
  store ptr %0, ptr %6, align 8, !tbaa !54
  store ptr %1, ptr %7, align 8, !tbaa !54
  store i32 %2, ptr %8, align 4, !tbaa !114
  store ptr %3, ptr %9, align 8, !tbaa !84
  store i64 %4, ptr %10, align 8, !tbaa !19
  %11 = load ptr, ptr %6, align 8, !tbaa !54
  %12 = load ptr, ptr %7, align 8, !tbaa !54
  %13 = load i32, ptr %8, align 4, !tbaa !114
  %14 = load i64, ptr %10, align 8, !tbaa !19
  %15 = call noundef ptr @_Z11save_callocPKcS0_imm(ptr noundef %11, ptr noundef %12, i32 noundef %13, i64 noundef %14, i64 noundef 4)
  %16 = load ptr, ptr %9, align 8, !tbaa !84
  store ptr %15, ptr %16, align 8, !tbaa !77
  ret void
}

; Function Attrs: mustprogress uwtable
define void @_Z25gmx_ana_index_init_simpleP15gmx_ana_index_ti(ptr noundef %0, i32 noundef %1) #0 {
  %3 = alloca ptr, align 8
  %4 = alloca i32, align 4
  %5 = alloca i32, align 4
  store ptr %0, ptr %3, align 8, !tbaa !232
  store i32 %1, ptr %4, align 4, !tbaa !114
  call void @llvm.lifetime.start.p0(i64 4, ptr %5) #19
  %6 = load i32, ptr %4, align 4, !tbaa !114
  %7 = load ptr, ptr %3, align 8, !tbaa !232
  %8 = getelementptr inbounds nuw %struct.gmx_ana_index_t, ptr %7, i32 0, i32 0
  store i32 %6, ptr %8, align 8, !tbaa !234
  %9 = load ptr, ptr %3, align 8, !tbaa !232
  %10 = getelementptr inbounds nuw %struct.gmx_ana_index_t, ptr %9, i32 0, i32 1
  %11 = load i32, ptr %4, align 4, !tbaa !114
  %12 = sext i32 %11 to i64
  call void @_ZL13gmx_snew_implIiEvPKcS1_iRPT_m(ptr noundef @.str.11, ptr noundef @.str.3, i32 noundef 332, ptr noundef nonnull align 8 dereferenceable(8) %10, i64 noundef %12)
  store i32 0, ptr %5, align 4, !tbaa !114
  br label %13

13:                                               ; preds = %25, %2
  %14 = load i32, ptr %5, align 4, !tbaa !114
  %15 = load i32, ptr %4, align 4, !tbaa !114
  %16 = icmp slt i32 %14, %15
  br i1 %16, label %17, label %28

17:                                               ; preds = %13
  %18 = load i32, ptr %5, align 4, !tbaa !114
  %19 = load ptr, ptr %3, align 8, !tbaa !232
  %20 = getelementptr inbounds nuw %struct.gmx_ana_index_t, ptr %19, i32 0, i32 1
  %21 = load ptr, ptr %20, align 8, !tbaa !236
  %22 = load i32, ptr %5, align 4, !tbaa !114
  %23 = sext i32 %22 to i64
  %24 = getelementptr inbounds i32, ptr %21, i64 %23
  store i32 %18, ptr %24, align 4, !tbaa !114
  br label %25

25:                                               ; preds = %17
  %26 = load i32, ptr %5, align 4, !tbaa !114
  %27 = add nsw i32 %26, 1
  store i32 %27, ptr %5, align 4, !tbaa !114
  br label %13, !llvm.loop !308

28:                                               ; preds = %13
  %29 = load i32, ptr %4, align 4, !tbaa !114
  %30 = load ptr, ptr %3, align 8, !tbaa !232
  %31 = getelementptr inbounds nuw %struct.gmx_ana_index_t, ptr %30, i32 0, i32 2
  store i32 %29, ptr %31, align 8, !tbaa !238
  call void @llvm.lifetime.end.p0(i64 4, ptr %5) #19
  ret void
}