; Function Attrs: mustprogress uwtable
define void @_Z25gmx_ana_index_init_simpleP15gmx_ana_index_ti(ptr noundef writeonly captures(none) initializes((0, 4), (8, 16)) %0, i32 noundef %1) local_unnamed_addr #0 {
  store i32 %1, ptr %0, align 8, !tbaa !73
  %3 = getelementptr inbounds nuw i8, ptr %0, i64 8
  %4 = sext i32 %1 to i64
  %5 = tail call noundef ptr @_Z11save_callocPKcS0_imm(ptr noundef nonnull @.str.11, ptr noundef nonnull @.str.3, i32 noundef 332, i64 noundef range(i64 -2147483648, 2147483648) %4, i64 noundef 4)
  store ptr %5, ptr %3, align 8, !tbaa !30
  %6 = icmp sgt i32 %1, 0
  br i1 %6, label %.lr.ph.preheader, label %._crit_edge

.lr.ph.preheader:                                 ; preds = %2
  %wide.trip.count = zext nneg i32 %1 to i64
  br label %.lr.ph

.lr.ph:                                           ; preds = %.lr.ph.preheader, %.lr.ph
  %indvars.iv = phi i64 [ 0, %.lr.ph.preheader ], [ %indvars.iv.next, %.lr.ph ]
  %7 = getelementptr inbounds nuw i32, ptr %5, i64 %indvars.iv
  %8 = trunc nuw nsw i64 %indvars.iv to i32
  store i32 %8, ptr %7, align 4, !tbaa !36
  %indvars.iv.next = add nuw nsw i64 %indvars.iv, 1
  %exitcond.not = icmp eq i64 %indvars.iv.next, %wide.trip.count
  br i1 %exitcond.not, label %._crit_edge, label %.lr.ph, !llvm.loop !112

._crit_edge:                                      ; preds = %.lr.ph, %2
  %9 = getelementptr inbounds nuw i8, ptr %0, i64 16
  store i32 %1, ptr %9, align 8, !tbaa !75
  ret void
}